Certificate:
    Data:
        Version: 3 (0x2)
        Serial Number: 977 (0x3d1)
    Signature Algorithm: sha256WithRSAEncryption
        Issuer: serialNumber=4, CN=CSCA NL, OU=Ministry of the Interior and Kingdom Relations, O=State of the Netherlands, C=NL
        Validity
            Not Before: Oct 25 00:00:00 2015 GMT
            Not After : Nov  3 00:00:00 2025 GMT
        Subject: serialNumber=489, CN=DS-01 NL, OU=Ministry of the Interior and Kingdom Relations, O=State of the Netherlands, C=NL
        Subject Public Key Info:
            Public Key Algorithm: rsaEncryption
                Public-Key: (4096 bit)
                Modulus:
                    00:c6:52:e2:df:1d:94:57:6c:23:49:71:7d:f6:7e:
                    19:0b:bf:53:d3:02:4f:58:d9:16:1c:c2:95:2f:00:
                    bd:e2:fc:6f:6e:a0:95:5b:fc:ba:b1:2c:52:9f:51:
                    97:c7:ce:32:b3:d9:5a:a2:fb:af:85:ee:d0:42:68:
                    1c:5b:ad:ce:ae:d4:93:43:7c:76:a6:8a:87:10:33:
                    a7:d8:b8:98:2d:b6:6a:01:3a:69:52:ee:db:71:b5:
                    08:80:5f:49:9c:aa:c0:dd:71:d0:0d:e8:aa:ff:77:
                    f3:ce:5a:7a:87:f0:7a:68:e9:a0:59:7e:f8:2c:c6:
                    f9:bf:94:a1:04:b6:14:94:a6:7e:54:65:6f:aa:e6:
                    1f:bb:79:43:2e:75:2b:ca:7d:22:be:de:10:ae:51:
                    f0:37:a4:08:02:39:7f:8b:e1:a1:04:b2:05:35:c4:
                    00:29:07:f9:78:d8:f1:0c:29:73:b2:c0:14:d2:3f:
                    42:71:2d:db:92:4a:a5:24:4a:08:3b:ae:14:5c:a1:
                    3d:3e:8f:ba:e3:7f:56:a3:0d:8b:1c:1a:d8:3e:e2:
                    3f:9f:08:c4:2b:93:c2:1c:a9:3d:80:b0:99:1d:fc:
                    69:b5:8e:cf:6d:03:f8:a9:59:0c:cc:cb:de:81:23:
                    de:b3:91:ce:7f:81:6c:07:c6:9d:79:88:b2:05:79:
                    c0:95:d0:7c:eb:bc:28:f4:a5:49:a9:f5:b6:fb:57:
                    51:a1:d5:b7:bb:7b:dd:28:7a:1e:7c:8c:e0:b3:21:
                    2a:c8:26:a9:9f:6b:87:c6:c7:a0:79:17:a7:98:44:
                    6d:a6:7b:a7:ff:f2:a8:d9:fe:5e:30:71:3f:37:a8:
                    40:0d:4f:f9:be:a4:f5:e2:84:94:1b:f0:a5:d9:d1:
                    1d:75:dc:04:a9:45:67:0d:b0:f9:29:99:3e:0a:d2:
                    48:c0:10:07:6b:ae:af:15:f2:89:14:bb:28:9f:6e:
                    aa:cc:a2:e8:6a:0f:90:07:f6:c7:9f:e1:0f:50:d5:
                    26:3f:70:42:4f:36:c2:28:fd:5e:d0:2b:c7:ca:bf:
                    5d:b5:43:59:6f:0b:db:be:b3:18:13:5b:ec:29:8f:
                    a9:59:1c:02:53:f7:40:a7:14:12:6a:be:e2:c3:d4:
                    bd:cb:ac:39:b3:31:ce:81:fd:25:6f:97:44:39:fa:
                    49:4a:3f:29:37:1a:af:22:ac:4a:17:b9:32:1d:36:
                    56:e8:96:1c:b0:a5:38:25:07:f9:27:cb:8e:46:ea:
                    c5:46:8f:27:05:cc:54:97:5d:d9:df:05:12:aa:10:
                    6b:33:a3:55:42:d1:d0:33:3c:31:c2:1d:84:0e:0f:
                    e6:fa:98:d7:9d:f0:dc:52:7a:e0:0a:33:4b:26:cb:
                    2f:02:71
                Exponent: 65537 (0x10001)
        X509v3 extensions:
            X509v3 Key Usage: critical
                Digital Signature
            X509v3 Certificate Policies: 
                Policy: 0.4.0.2042.1.2

            X509v3 Private Key Usage Period: 
                Not Before: Oct 25 00:00:00 2015 GMT, Not After: Nov  1 00:00:00 2015 GMT
            X509v3 Subject Key Identifier: 
                DD:FF:74:26:B8:8A:DF:85:1F:A8:83:18:2D:BD:0B:0A:C5:26:30:93:05:1A:A6:1B:7B:DD:85:11:49:65:EB:E3
            X509v3 Authority Key Identifier: 
                keyid:47:BB:B8:1B:F0:C3:98:40:96:AC:F7:F3:ED:EF:92:57:DE:A7:75:34:FE:56:DE:0D:80:CC:7C:93:80:5F:42:41

    Signature Algorithm: sha256WithRSAEncryption
         5d:9a:48:e4:cc:78:e5:06:b1:31:2c:f4:a7:07:05:84:6d:19:
         2c:d0:65:66:c9:08:f3:34:bf:d8:81:a1:c9:ed:fd:4f:a2:dc:
         ef:eb:5d:63:39:ce:2d:9e:a7:85:71:03:09:5a:41:53:13:1c:
         48:a0:f5:4a:ca:c3:a5:ee:95:30:eb:d7:9a:12:ca:5e:cc:14:
         d7:b7:46:7b:43:e5:a3:58:05:20:6f:4a:98:75:5a:11:22:90:
         ab:02:4f:ce:05:2b:0e:43:cd:ae:3f:cf:5b:ae:c9:3a:e1:b5:
         81:e0:ce:dc:9c:b6:03:3c:e9:a3:cb:f2:38:aa:69:10:6d:c0:
         36:5f:8d:5c:29:9c:d2:73:c1:8f:6f:5e:3a:ca:8d:71:0a:5c:
         fc:4f:be:46:ab:3b:0d:2e:fb:ea:74:40:a5:7d:27:76:76:8a:
         50:d9:e2:dc:58:b5:d5:07:98:aa:ef:23:a1:bc:84:c7:6a:5a:
         de:72:ee:23:67:44:7c:85:93:37:34:50:9a:4b:69:ba:6f:27:
         b5:ba:7d:66:f1:07:29:2b:77:a0:20:aa:7e:10:b3:38:08:87:
         11:a7:e1:86:e8:00:72:c3:15:53:e0:a8:ff:08:27:4f:d0:6e:
         40:1f:db:a5:70:10:69:02:5e:9a:64:aa:76:f4:f8:31:85:09:
         d8:ee:79:31:98:cf:c5:3d:f3:29:60:7c:ab:21:79:23:74:bc:
         6b:24:61:d6:db:2d:fc:0f:f5:51:c2:b7:01:50:c7:f5:ff:ca:
         ba:73:62:6c:1e:21:0b:b3:35:df:64:cf:ff:ea:cf:2c:b8:4e:
         45:fe:77:d9:6c:b6:76:27:21:14:0c:ab:e1:52:27:88:e8:b9:
         e6:31:7c:b2:47:2d:53:88:8d:5a:57:90:a1:dc:30:3e:43:c7:
         59:d6:50:d6:9e:de:5e:1c:23:3b:17:94:0e:e2:9c:f0:c7:92:
         8e:47:1b:43:ad:dd:05:03:af:87:57:2e:ae:30:d2:50:cf:12:
         2d:dd:0b:28:93:d6:a7:d3:99:24:8d:63:e6:20:28:f4:ae:bf:
         2d:9e:d3:11:23:1b:5a:ff:59:5b:85:68:60:95:c4:7f:ba:ad:
         5d:2b:2d:13:1d:bd:c2:dd:f1:43:99:6b:42:ee:9c:7b:5e:ca:
         59:83:59:4d:fa:df:7a:76:10:ce:31:ec:d8:0e:47:d8:f6:74:
         8a:89:64:13:d6:2c:dd:b2:69:b3:a7:59:2a:4a:51:71:2b:4f:
         18:c8:53:36:ed:01:39:fa:ce:08:56:e4:a3:af:4e:d7:26:fa:
         6e:85:8b:62:02:b1:67:7a:72:32:72:50:cb:e5:88:7e:b2:cd:
         60:0d:dd:5d:ed:84:71:81
-----BEGIN CERTIFICATE-----
MIIGPTCCBCWgAwIBAgICA9EwDQYJKoZIhvcNAQELBQAwgYcxCjAIBgNVBAUTATQx
EDAOBgNVBAMMB0NTQ0EgTkwxNzA1BgNVBAsMLk1pbmlzdHJ5IG9mIHRoZSBJbnRl
cmlvciBhbmQgS2luZ2RvbSBSZWxhdGlvbnMxITAfBgNVBAoMGFN0YXRlIG9mIHRo
ZSBOZXRoZXJsYW5kczELMAkGA1UEBhMCTkwwHhcNMTUxMDI1MDAwMDAwWhcNMjUx
MTAzMDAwMDAwWjCBijEMMAoGA1UEBRMDNDg5MREwDwYDVQQDDAhEUy0wMSBOTDE3
MDUGA1UECwwuTWluaXN0cnkgb2YgdGhlIEludGVyaW9yIGFuZCBLaW5nZG9tIFJl
bGF0aW9uczEhMB8GA1UECgwYU3RhdGUgb2YgdGhlIE5ldGhlcmxhbmRzMQswCQYD
VQQGEwJOTDCCAiIwDQYJKoZIhvcNAQEBBQADggIPADCCAgoCggIBAMZS4t8dlFds
I0lxffZ+GQu/U9MCT1jZFhzClS8AveL8b26glVv8urEsUp9Rl8fOMrPZWqL7r4Xu
0EJoHFutzq7Uk0N8dqaKhxAzp9i4mC22agE6aVLu23G1CIBfSZyqwN1x0A3oqv93
885aeofwemjpoFl++CzG+b+UoQS2FJSmflRlb6rmH7t5Qy51K8p9Ir7eEK5R8Dek
CAI5f4vhoQSyBTXEACkH+XjY8Qwpc7LAFNI/QnEt25JKpSRKCDuuFFyhPT6PuuN/
VqMNixwa2D7iP58IxCuTwhypPYCwmR38abWOz20D+KlZDMzL3oEj3rORzn+BbAfG
nXmIsgV5wJXQfOu8KPSlSan1tvtXUaHVt7t73Sh6HnyM4LMhKsgmqZ9rh8bHoHkX
p5hEbaZ7p//yqNn+XjBxPzeoQA1P+b6k9eKElBvwpdnRHXXcBKlFZw2w+SmZPgrS
SMAQB2uurxXyiRS7KJ9uqsyi6GoPkAf2x5/hD1DVJj9wQk82wij9XtArx8q/XbVD
WW8L276zGBNb7CmPqVkcAlP3QKcUEmq+4sPUvcusObMxzoH9JW+XRDn6SUo/KTca
ryKsShe5Mh02VuiWHLClOCUH+SfLjkbqxUaPJwXMVJdd2d8FEqoQazOjVULR0DM8
McIdhA4P5vqY153w3FJ64AozSybLLwJxAgMBAAGjga0wgaowDgYDVR0PAQH/BAQD
AgeAMBMGA1UdIAQMMAowCAYGBACPegECMCsGA1UdEAQkMCKADzIwMTUxMDI1MDAw
MDAwWoEPMjAxNTExMDEwMDAwMDBaMCkGA1UdDgQiBCDd/3QmuIrfhR+ogxgtvQsK
xSYwkwUapht73YURSWXr4zArBgNVHSMEJDAigCBHu7gb8MOYQJas9/Pt75JX3qd1
NP5W3g2AzHyTgF9CQTANBgkqhkiG9w0BAQsFAAOCAgEAXZpI5Mx45QaxMSz0pwcF
hG0ZLNBlZskI8zS/2IGhye39T6Lc7+tdYznOLZ6nhXEDCVpBUxMcSKD1SsrDpe6V
MOvXmhLKXswU17dGe0Plo1gFIG9KmHVaESKQqwJPzgUrDkPNrj/PW67JOuG1geDO
3Jy2Azzpo8vyOKppEG3ANl+NXCmc0nPBj29eOsqNcQpc/E++Rqs7DS776nRApX0n
dnaKUNni3Fi11QeYqu8jobyEx2pa3nLuI2dEfIWTNzRQmktpum8ntbp9ZvEHKSt3
oCCqfhCzOAiHEafhhugAcsMVU+Co/wgnT9BuQB/bpXAQaQJemmSqdvT4MYUJ2O55
MZjPxT3zKWB8qyF5I3S8ayRh1tst/A/1UcK3AVDH9f/KunNibB4hC7M132TP/+rP
LLhORf532Wy2dichFAyr4VIniOi55jF8skctU4iNWleQodwwPkPHWdZQ1p7eXhwj
OxeUDuKc8MeSjkcbQ63dBQOvh1curjDSUM8SLd0LKJPWp9OZJI1j5iAo9K6/LZ7T
ESMbWv9ZW4VoYJXEf7qtXSstEx29wt3xQ5lrQu6ce17KWYNZTfrfenYQzjHs2A5H
2PZ0iolkE9Ys3bJps6dZKkpRcStPGMhTNu0BOfrOCFbko69O1yb6boWLYgKxZ3py
MnJQy+WIfrLNYA3dXe2EcYE=
-----END CERTIFICATE-----

